Certificate Request:
    Data:
        Version: 1 (0x0)
        Subject: C = FR, L = Limoges, O = TMC, OU = IOT, CN = mqtt.com
        Subject Public Key Info:
            Public Key Algorithm: id-ecPublicKey
                Public-Key: (256 bit)
                pub:
                    04:b3:ef:01:7b:f6:87:b5:d0:cb:52:e8:3a:38:0b:
                    41:d8:37:0b:a9:95:e4:be:9a:5e:9e:aa:39:7e:6e:
                    b4:88:b4:29:14:3d:4a:c0:01:ac:50:ae:35:28:0e:
                    86:d2:ad:58:ba:f8:b1:c8:e7:d9:b2:f3:cb:d5:ef:
                    18:fd:23:ec:c6
                ASN1 OID: prime256v1
                NIST CURVE: P-256
        Attributes:
        Requested Extensions:
            X509v3 Basic Constraints: 
                CA:FALSE
    Signature Algorithm: ecdsa-with-SHA256
         30:46:02:21:00:8c:3f:70:93:ad:62:b2:bb:6e:16:c6:e5:6c:
         55:6b:f6:02:6c:6c:5d:94:7f:d2:ab:8a:1d:fd:21:f0:7f:c3:
         e4:02:21:00:87:5c:3b:3d:4a:ab:04:70:e5:08:17:7b:4e:18:
         1c:2a:08:f4:67:c2:40:85:fb:5d:31:66:f2:09:46:d1:45:68
-----BEGIN CERTIFICATE REQUEST-----
MIIBJjCBzAIBADBOMQswCQYDVQQGEwJGUjEQMA4GA1UEBwwHTGltb2dlczEMMAoG
A1UECgwDVE1DMQwwCgYDVQQLDANJT1QxETAPBgNVBAMMCG1xdHQuY29tMFkwEwYH
KoZIzj0CAQYIKoZIzj0DAQcDQgAEs+8Be/aHtdDLUug6OAtB2DcLqZXkvppenqo5
fm60iLQpFD1KwAGsUK41KA6G0q1YuvixyOfZsvPL1e8Y/SPsxqAcMBoGCSqGSIb3
DQEJDjENMAswCQYDVR0TBAIwADAKBggqhkjOPQQDAgNJADBGAiEAjD9wk61isrtu
FsblbFVr9gJsbF2Uf9Krih39IfB/w+QCIQCHXDs9SqsEcOUIF3tOGBwqCPRnwkCF
+10xZvIJRtFFaA==
-----END CERTIFICATE REQUEST-----
