Certificate Request:
    Data:
        Version: 1 (0x0)
        Subject: C = FR, L = Limoges, O = TMC, OU = IOT, CN = esp8266
        Subject Public Key Info:
            Public Key Algorithm: id-ecPublicKey
                Public-Key: (256 bit)
                pub:
                    04:a7:8b:69:66:6a:e2:d9:4f:d5:c1:f3:43:73:f5:
                    7f:39:f2:a2:32:ea:38:8c:af:f8:92:63:34:99:19:
                    7e:29:91:c4:c5:70:c2:5e:52:25:ac:06:b5:b6:00:
                    66:28:14:fe:cb:9b:a9:6e:31:2f:8b:da:45:65:fc:
                    3e:13:1a:ab:17
                ASN1 OID: prime256v1
                NIST CURVE: P-256
        Attributes:
        Requested Extensions:
            X509v3 Basic Constraints: 
                CA:FALSE
    Signature Algorithm: ecdsa-with-SHA256
         30:45:02:21:00:d1:58:84:00:59:4f:f9:b5:cd:78:fd:a4:c8:
         56:4d:1e:fc:46:a9:06:06:70:ab:07:93:ba:74:3d:ca:60:bf:
         4b:02:20:6d:71:ed:ef:54:77:f1:31:d2:6b:0b:86:79:f7:dc:
         a5:81:d5:bb:25:88:ee:90:08:b3:1a:38:89:54:c6:63:a0
-----BEGIN CERTIFICATE REQUEST-----
MIIBJDCBywIBADBNMQswCQYDVQQGEwJGUjEQMA4GA1UEBwwHTGltb2dlczEMMAoG
A1UECgwDVE1DMQwwCgYDVQQLDANJT1QxEDAOBgNVBAMMB2VzcDgyNjYwWTATBgcq
hkjOPQIBBggqhkjOPQMBBwNCAASni2lmauLZT9XB80Nz9X858qIy6jiMr/iSYzSZ
GX4pkcTFcMJeUiWsBrW2AGYoFP7Lm6luMS+L2kVl/D4TGqsXoBwwGgYJKoZIhvcN
AQkOMQ0wCzAJBgNVHRMEAjAAMAoGCCqGSM49BAMCA0gAMEUCIQDRWIQAWU/5tc14
/aTIVk0e/EapBgZwqweTunQ9ymC/SwIgbXHt71R38THSawuGeffcpYHVuyWI7pAI
sxo4iVTGY6A=
-----END CERTIFICATE REQUEST-----
